(dp1
S'output'
p2
S"<type 'exceptions.AttributeError'> 'DAL' object has no attribute 'upload_recipe'"
p3
sS'layer'
p4
S'/home/simran/web2py/applications/QUIZES_OVERLOADED/controllers/default.py'
p5
sS'code'
p6
S'# -*- coding: utf-8 -*-\n# this file is released under public domain and you can use without limitations\n\n#########################################################################\n## This is a sample controller\n## - index is the default action of any application\n## - user is required for authentication and authorization\n## - download is for downloading files uploaded in the db (does streaming)\n#########################################################################\n\ndef index():\n    """\n    example action using the internationalization operator T and flash\n    rendered by views/default/index.html or views/generic.html\n\n    if you need a simple wiki simply replace the two lines below with:\n    return auth.wiki()\n    """\n    rows=db().select(db.titles.ALL,orderby=db.titles.title_name)\n    \n    #print type(value)\n    \n    coloms=db().select(db.titles.ALL,orderby=db.titles.title_name)\n    #print coloms\n    return dict(rows=rows,coloms=coloms)\n@auth.requires_login()\ndef show():\n    value = request.vars.value\n    b = auth.user_id\n    cols = db((db.checking.title == value) & (db.checking.current_user == b)).select(db.checking.ALL)\n    if cols:\n        session.flash=T(\'You Paused a Quiz ,  choose from here\')\n        redirect(URL(\'res\'))\n    else :    \n        rows = db(db.upload_question.title == value).select(db.upload_question.ALL)\n        i=1\n        for row in rows:\n            #print type(row.id)\n            #print type(auth.user_id)\n            #print "row.id",row.id\n            #print auth.user_id\n            #db.executesql("INSERT INTO checking (question_id,current_user) VALUES (\'%d\',\'%d\')" % (row.id,auth.user_id))\n            db.executesql("INSERT INTO checking (question_id,current_user,answer_a,answer_b,answer_c,answer_d,title,count,show) VALUES (\'{0}\',\'{1}\',\'False\',\'False\',\'False\',\'False\',\'{2}\',\'{3}\',\'UnAttempted\')" .format(row.id,auth.user_id,value,i))\n            i = i + 1\n        #print "id",b\n        cols = db((db.checking.title == value) & (db.checking.current_user == b)).select(db.checking.ALL)\n        return dict(rows=rows,value=value,b=b,cols=cols)\ndef show1():\n    a = request.vars.id1\n    b = request.vars.id2\n    #print "a",a\n    #print "b",b\n    db((db.checking.question_id == a) & (db.checking.current_user == auth.user_id)).update(answer_a = \'True\')\n    \n    \ndef show2():\n    a = request.vars.id1\n    b = request.vars.id2\n    #print "a",a\n    #print "b",b\n    db((db.checking.question_id == a)& (db.checking.current_user == auth.user_id)).update(answer_b = \'True\')\ndef show3():\n    a = request.vars.id1\n    b = request.vars.id2\n    #print "a",a\n    #print "b",b\n    db((db.checking.question_id == a)& (db.checking.current_user == auth.user_id)).update(answer_c = \'True\')\ndef show4():\n    a = request.vars.id1\n    b = request.vars.id2\n    #print "a",a\n    #print "b",b\n    db((db.checking.question_id == a)& (db.checking.current_user == auth.user_id)).update(answer_d = \'True\')\n\ndef finish():\n    value=request.args(0)\n    user=request.args(1)\n    #print "user",user\n    i = 1\n    rows = db((db.checking.title == value) & (db.checking.current_user == user)).select(db.checking.ALL)\n    for row in rows:\n        db.executesql("INSERT INTO tempstore (count,check_ans) VALUES (\'{0}\',\'Incorrect\')" .format(i))\n        i = i + 1\n    slct = db().select(db.upload_question.ALL)\n    val = 0\n    for row in rows:\n        choose = db(db.upload_question.id == row.question_id).select(db.upload_question.ALL)\n        for chose in choose :\n            if (row.answer_a == chose.answer_a and row.answer_b == chose.answer_b and row.answer_c == chose.answer_c and row.answer_d == chose.answer_d ) :\n                db((db.tempstore.count == row.count)).update(check_ans = \'Correct\')\n                val = val + 10\n    usr = db(db.auth_user.id == user).select(db.auth_user.ALL)\n    temps = db().select(db.tempstore.ALL)\n    rows = db(db.upload_question.title == value).select(db.upload_question.ALL)\n    likes = db(db.recipe_likes.recipe == value).count()\n    if auth.user_id:\n        liked = db((db.recipe_likes.recipe == value) & (db.recipe_likes.liked_by == auth.user_id)).select()\n        liked = True if len(liked) == 1 else False\n    else:\n        liked = False\n    return dict(val=val,usr=usr,value=value,user=user,rows=rows,temps=temps,likes=likes,liked=liked)\n\ndef home():\n    value=request.args(0)\n    user=request.args(1)\n    db((db.checking.title == value) & (db.checking.current_user == user)).delete()\n    db.tempstore.truncate()\n    redirect(URL(\'index\'))\n@auth.requires_login()\ndef resume():\n    value = request.vars.value\n    b = auth.user_id\n    cols = db((db.checking.title == value) & (db.checking.current_user == b)).select(db.checking.ALL)\n    if not cols:\n        session.flash=T(\'You Never Paused a Quiz , thus choose from here\')\n        redirect(URL(\'index\'))\n    else:    \n        rows = db(db.upload_question.title == value).select(db.upload_question.ALL)\n        return dict(rows=rows,value=value,b=b,cols=cols)\n@auth.requires_login()\ndef res():\n    rows=db().select(db.titles.ALL,orderby=db.titles.title_name)\n    \n    #print type(value)\n    \n    coloms=db().select(db.titles.ALL,orderby=db.titles.title_name)\n    #print coloms\n    return dict(rows=rows,coloms=coloms)\n@auth.requires_login()\ndef title():\n    form = SQLFORM(db.titles).process()\n    return locals()\n@auth.requires_login()\ndef upload_quiz():\n    form = SQLFORM(db.upload_question).process()\n    return locals()\n\ndef like():\n    value = request.args(0)\n    liked = db((db.recipe_likes.recipe == value)& (db.recipe_likes.liked_by == auth.user_id)).count()\n    liked = True if liked == 1 else False\n    if not liked:\n        db.recipe_likes.insert(recipe=value, liked_by=auth.user_id)\n    redirect(URL(\'finish\', args=request.args))\n    return dict()\n\ndef unlike():\n    value = request.args(0)\n    liked = db((db.recipe_likes.recipe == value) & (db.recipe_likes.liked_by == auth.user_id)).select().first()\n    if liked:\n        del db.recipe_likes[liked.id]\n    redirect(URL(\'finish\', args=request.args))\n    return dict()\n@auth.requires_login()\ndef feedback():\n    hello = SQLFORM(db.feedback).process()\n    return dict(hello=hello)\n\n@auth.requires_login()\ndef reviews():\n    rows=db().select(db.feedback.ALL,orderby=~db.upload_recipe.created_on)\n    return dict(rows=rows)\ndef user():\n    """\n    exposes:\n    http://..../[app]/default/user/login\n    http://..../[app]/default/user/logout\n    http://..../[app]/default/user/register\n    http://..../[app]/default/user/profile\n    http://..../[app]/default/user/retrieve_password\n    http://..../[app]/default/user/change_password\n    http://..../[app]/default/user/bulk_register\n    use @auth.requires_login()\n        @auth.requires_membership(\'group name\')\n        @auth.requires_permission(\'read\',\'table name\',record_id)\n    to decorate functions that need access control\n    also notice there is http://..../[app]/appadmin/manage/auth to allow administrator to manage users\n    """\n    return dict(form=auth())\n\n\n@cache.action()\ndef download():\n    """\n    allows downloading of uploaded files\n    http://..../[app]/default/download/[filename]\n    """\n    return response.download(request, db)\n\n\ndef call():\n    """\n    exposes services. for example:\n    http://..../[app]/default/call/jsonrpc\n    decorate with @services.jsonrpc the functions to expose\n    supports xml, json, xmlrpc, jsonrpc, amfrpc, rss, csv\n    """\n    return service()\n\nresponse._vars=response._caller(reviews)\n'
p7
sS'snapshot'
p8
(dp9
sS'traceback'
p10
S'Traceback (most recent call last):\n  File "/home/simran/web2py/gluon/restricted.py", line 227, in restricted\n    exec ccode in environment\n  File "/home/simran/web2py/applications/QUIZES_OVERLOADED/controllers/default.py", line 200, in <module>\n  File "/home/simran/web2py/gluon/globals.py", line 417, in <lambda>\n    self._caller = lambda f: f()\n  File "/home/simran/web2py/gluon/tools.py", line 4258, in f\n    return action(*a, **b)\n  File "/home/simran/web2py/applications/QUIZES_OVERLOADED/controllers/default.py", line 161, in reviews\n    rows=db().select(db.feedback.ALL,orderby=~db.upload_recipe.created_on)\n  File "/home/simran/web2py/gluon/packages/dal/pydal/base.py", line 921, in __getattr__\n    return BasicStorage.__getattribute__(self, key)\nAttributeError: \'DAL\' object has no attribute \'upload_recipe\'\n'
p11
s.