(dp1
S'output'
p2
S'<class \'sqlite3.OperationalError\'> near "s": syntax error'
p3
sS'layer'
p4
S'/home/simran/web2py/applications/QUIZES_OVERLOADED/controllers/default.py'
p5
sS'code'
p6
S'# -*- coding: utf-8 -*-\n# this file is released under public domain and you can use without limitations\n\n#########################################################################\n## This is a sample controller\n## - index is the default action of any application\n## - user is required for authentication and authorization\n## - download is for downloading files uploaded in the db (does streaming)\n#########################################################################\n\ndef index():\n    """\n    example action using the internationalization operator T and flash\n    rendered by views/default/index.html or views/generic.html\n\n    if you need a simple wiki simply replace the two lines below with:\n    return auth.wiki()\n    """\n    rows=db().select(db.titles.ALL,orderby=db.titles.title_name)\n    return dict(rows=rows)\n@auth.requires_login()\ndef show():\n    value = request.vars.value\n    rows = db(db.upload_question.title == value).select(db.upload_question.ALL)\n    for row in rows:\n        print row.question\n        db.executesql("INSERT INTO checking (question) VALUES (\'%s\')" % (row.question))\n    return dict(rows=rows)\n\ndef user():\n    """\n    exposes:\n    http://..../[app]/default/user/login\n    http://..../[app]/default/user/logout\n    http://..../[app]/default/user/register\n    http://..../[app]/default/user/profile\n    http://..../[app]/default/user/retrieve_password\n    http://..../[app]/default/user/change_password\n    http://..../[app]/default/user/bulk_register\n    use @auth.requires_login()\n        @auth.requires_membership(\'group name\')\n        @auth.requires_permission(\'read\',\'table name\',record_id)\n    to decorate functions that need access control\n    also notice there is http://..../[app]/appadmin/manage/auth to allow administrator to manage users\n    """\n    return dict(form=auth())\n\n\n@cache.action()\ndef download():\n    """\n    allows downloading of uploaded files\n    http://..../[app]/default/download/[filename]\n    """\n    return response.download(request, db)\n\n\ndef call():\n    """\n    exposes services. for example:\n    http://..../[app]/default/call/jsonrpc\n    decorate with @services.jsonrpc the functions to expose\n    supports xml, json, xmlrpc, jsonrpc, amfrpc, rss, csv\n    """\n    return service()\n\nresponse._vars=response._caller(show)\n'
p7
sS'snapshot'
p8
(dp9
sS'traceback'
p10
S'Traceback (most recent call last):\n  File "/home/simran/web2py/gluon/restricted.py", line 227, in restricted\n    exec ccode in environment\n  File "/home/simran/web2py/applications/QUIZES_OVERLOADED/controllers/default.py", line 67, in <module>\n  File "/home/simran/web2py/gluon/globals.py", line 417, in <lambda>\n    self._caller = lambda f: f()\n  File "/home/simran/web2py/gluon/tools.py", line 4258, in f\n    return action(*a, **b)\n  File "/home/simran/web2py/applications/QUIZES_OVERLOADED/controllers/default.py", line 27, in show\n    db.executesql("INSERT INTO checking (question) VALUES (\'%s\')" % (row.question))\n  File "/home/simran/web2py/gluon/packages/dal/pydal/base.py", line 1019, in executesql\n    adapter.execute(query)\n  File "/home/simran/web2py/gluon/packages/dal/pydal/adapters/base.py", line 1388, in execute\n    return self.log_execute(*a, **b)\n  File "/home/simran/web2py/gluon/packages/dal/pydal/adapters/base.py", line 1382, in log_execute\n    ret = self.get_cursor().execute(command, *a[1:], **b)\nOperationalError: near "s": syntax error\n'
p11
s.